target datalayout = "e-m:e-p270:32:32-p271:32:32-p272:64:64-i64:64-i128:128-f80:128-n8:16:32:64-S128"
target triple = "x86_64-pc-linux-gnu"

%class.cfg_t = type { %"struct.std::pair.178", ptr, ptr, ptr, ptr, i8, i32, i64, i64, %"class.std::vector.205", %"class.std::optional.210", %"class.std::vector.152", i8, i8, i64 }
%"struct.std::pair.178" = type { i64, i64 }
%"class.std::vector.205" = type { %"struct.std::_Vector_base.206" }
%"struct.std::_Vector_base.206" = type { %"struct.std::_Vector_base<mem_cfg_t, std::allocator<mem_cfg_t>>::_Vector_impl" }
%"struct.std::_Vector_base<mem_cfg_t, std::allocator<mem_cfg_t>>::_Vector_impl" = type { %"struct.std::_Vector_base<mem_cfg_t, std::allocator<mem_cfg_t>>::_Vector_impl_data" }
%"struct.std::_Vector_base<mem_cfg_t, std::allocator<mem_cfg_t>>::_Vector_impl_data" = type { ptr, ptr, ptr }
%"class.std::optional.210" = type { %"struct.std::_Optional_base.211" }
%"struct.std::_Optional_base.211" = type { %"struct.std::_Optional_payload.213" }
%"struct.std::_Optional_payload.213" = type { %"struct.std::_Optional_payload_base.base.215", [7 x i8] }
%"struct.std::_Optional_payload_base.base.215" = type <{ %"union.std::_Optional_payload_base<unsigned long>::_Storage", i8 }>
%"union.std::_Optional_payload_base<unsigned long>::_Storage" = type { i64 }
%"class.std::vector.152" = type { %"struct.std::_Vector_base.153" }
%"struct.std::_Vector_base.153" = type { %"struct.std::_Vector_base<unsigned long, std::allocator<unsigned long>>::_Vector_impl" }
%"struct.std::_Vector_base<unsigned long, std::allocator<unsigned long>>::_Vector_impl" = type { %"struct.std::_Vector_base<unsigned long, std::allocator<unsigned long>>::_Vector_impl_data" }
%"struct.std::_Vector_base<unsigned long, std::allocator<unsigned long>>::_Vector_impl_data" = type { ptr, ptr, ptr }

@.str = private unnamed_addr constant [13 x i8] c"riscv,clint0\00", align 1
@.str.1 = private unnamed_addr constant [14 x i8] c"sifive,clint0\00", align 1
@_ZN7clint_tC1EPK7simif_tmb = unnamed_addr alias void (ptr, ptr, i64, i1), ptr @_ZN7clint_tC2EPK7simif_tmb

; Function Attrs: mustprogress uwtable
define noundef ptr @_Z20clint_parse_from_fdtPKvPK5sim_tPmRKSt6vectorINSt7__cxx1112basic_stringIcSt11char_traitsIcESaIcEEESaISB_EE(ptr noundef %0, ptr noundef %1, ptr noundef %2, ptr noundef nonnull align 8 dereferenceable(24) %3) #4 personality ptr @__gxx_personality_v0 {
  %5 = alloca ptr, align 8
  %6 = alloca ptr, align 8
  %7 = alloca ptr, align 8
  %8 = alloca ptr, align 8
  %9 = alloca ptr, align 8
  %10 = alloca ptr, align 8
  %11 = alloca i32, align 4
  store ptr %0, ptr %6, align 8
  store ptr %1, ptr %7, align 8
  store ptr %2, ptr %8, align 8
  store ptr %3, ptr %9, align 8
  %12 = load ptr, ptr %6, align 8
  %13 = load ptr, ptr %8, align 8
  %14 = call noundef i32 @_Z15fdt_parse_clintPKvPmPKc(ptr noundef %12, ptr noundef %13, ptr noundef @.str)
  %15 = icmp eq i32 %14, 0
  br i1 %15, label %21, label %16

16:                                               ; preds = %4
  %17 = load ptr, ptr %6, align 8
  %18 = load ptr, ptr %8, align 8
  %19 = call noundef i32 @_Z15fdt_parse_clintPKvPmPKc(ptr noundef %17, ptr noundef %18, ptr noundef @.str.1)
  %20 = icmp eq i32 %19, 0
  br i1 %20, label %21, label %43

21:                                               ; preds = %16, %4
  %22 = call noalias noundef nonnull ptr @_Znwm(i64 noundef 104) #16
  %23 = load ptr, ptr %7, align 8
  %24 = icmp eq ptr %23, null
  br i1 %24, label %27, label %25

25:                                               ; preds = %21
  %26 = getelementptr inbounds i8, ptr %23, i64 696
  br label %27

27:                                               ; preds = %25, %21
  %28 = phi ptr [ %26, %25 ], [ null, %21 ]
  %29 = load ptr, ptr %7, align 8
  %30 = load ptr, ptr %29, align 8
  %31 = getelementptr inbounds ptr, ptr %30, i64 16
  %32 = load ptr, ptr %31, align 8
  %33 = invoke noundef nonnull align 8 dereferenceable(152) ptr %32(ptr noundef nonnull align 8 dereferenceable(2888) %29)
          to label %34 unwind label %39

34:                                               ; preds = %27
  %35 = getelementptr inbounds %class.cfg_t, ptr %33, i32 0, i32 13
  %36 = load i8, ptr %35, align 1
  %37 = trunc i8 %36 to i1
  invoke void @_ZN7clint_tC1EPK7simif_tmb(ptr noundef nonnull align 8 dereferenceable(104) %22, ptr noundef %28, i64 noundef 10000000, i1 noundef zeroext %37)
          to label %38 unwind label %39

38:                                               ; preds = %34
  store ptr %22, ptr %5, align 8
  br label %44

39:                                               ; preds = %34, %27
  %40 = landingpad { ptr, i32 }
          cleanup
  %41 = extractvalue { ptr, i32 } %40, 0
  store ptr %41, ptr %10, align 8
  %42 = extractvalue { ptr, i32 } %40, 1
  store i32 %42, ptr %11, align 4
  call void @_ZdlPv(ptr noundef %22) #17
  br label %46

43:                                               ; preds = %16
  store ptr null, ptr %5, align 8
  br label %44

44:                                               ; preds = %43, %38
  %45 = load ptr, ptr %5, align 8
  ret ptr %45

46:                                               ; preds = %39
  %47 = load ptr, ptr %10, align 8
  %48 = load i32, ptr %11, align 4
  %49 = insertvalue { ptr, i32 } poison, ptr %47, 0
  %50 = insertvalue { ptr, i32 } %49, i32 %48, 1
  resume { ptr, i32 } %50
}