; Function Attrs: mustprogress uwtable
define noundef ptr @_Z20clint_parse_from_fdtPKvPK5sim_tPmRKSt6vectorINSt7__cxx1112basic_stringIcSt11char_traitsIcESaIcEEESaISB_EE(ptr noundef %0, ptr noundef %1, ptr noundef %2, ptr nocapture noundef nonnull readnone align 8 dereferenceable(24) %3) local_unnamed_addr #3 personality ptr @__gxx_personality_v0 {
  %5 = tail call noundef i32 @_Z15fdt_parse_clintPKvPmPKc(ptr noundef %0, ptr noundef %2, ptr noundef nonnull @.str)
  %6 = icmp eq i32 %5, 0
  br i1 %6, label %10, label %7

7:                                                ; preds = %4
  %8 = tail call noundef i32 @_Z15fdt_parse_clintPKvPmPKc(ptr noundef %0, ptr noundef %2, ptr noundef nonnull @.str.1)
  %9 = icmp eq i32 %8, 0
  br i1 %9, label %10, label %24

10:                                               ; preds = %7, %4
  %11 = tail call noalias noundef nonnull dereferenceable(104) ptr @_Znwm(i64 noundef 104) #21
  %12 = load ptr, ptr %1, align 8
  %13 = getelementptr inbounds i8, ptr %12, i64 128
  %14 = load ptr, ptr %13, align 8
  %15 = invoke noundef nonnull align 8 dereferenceable(152) ptr %14(ptr noundef nonnull align 8 dereferenceable(2888) %1)
          to label %16 unwind label %22

16:                                               ; preds = %10
  %17 = getelementptr inbounds i8, ptr %1, i64 696
  %18 = getelementptr inbounds i8, ptr %15, i64 137
  %19 = load i8, ptr %18, align 1
  %20 = and i8 %19, 1
  %21 = icmp ne i8 %20, 0
  invoke void @_ZN7clint_tC1EPK7simif_tmb(ptr noundef nonnull align 8 dereferenceable(104) %11, ptr noundef nonnull %17, i64 noundef 10000000, i1 noundef zeroext %21)
          to label %24 unwind label %22

22:                                               ; preds = %16, %10
  %23 = landingpad { ptr, i32 }
          cleanup
  tail call void @_ZdlPv(ptr noundef nonnull %11) #22
  resume { ptr, i32 } %23

24:                                               ; preds = %7, %16
  %.0 = phi ptr [ %11, %16 ], [ null, %7 ]
  ret ptr %.0
}